ARM GAS  C:\Users\nikod\AppData\Local\Temp\ccCC7BR4.s 			page 1


   1              		.syntax unified
   2              		.cpu cortex-m3
   3              		.fpu softvfp
   4              		.eabi_attribute 20, 1
   5              		.eabi_attribute 21, 1
   6              		.eabi_attribute 23, 3
   7              		.eabi_attribute 24, 1
   8              		.eabi_attribute 25, 1
   9              		.eabi_attribute 26, 1
  10              		.eabi_attribute 30, 1
  11              		.eabi_attribute 34, 1
  12              		.eabi_attribute 18, 4
  13              		.thumb
  14              		.syntax unified
  15              		.file	"INFRA.c"
  16              		.text
  17              	.Ltext0:
  18              		.cfi_sections	.debug_frame
  19              		.section	.text.INFRA_Write,"ax",%progbits
  20              		.align	2
  21              		.global	INFRA_Write
  22              		.thumb
  23              		.thumb_func
  24              		.type	INFRA_Write, %function
  25              	INFRA_Write:
  26              	.LFB0:
  27              		.file 1 "Generated_Source\\PSoC5\\INFRA.c"
   1:Generated_Source\PSoC5/INFRA.c **** /*******************************************************************************
   2:Generated_Source\PSoC5/INFRA.c **** * File Name: INFRA.c  
   3:Generated_Source\PSoC5/INFRA.c **** * Version 2.20
   4:Generated_Source\PSoC5/INFRA.c **** *
   5:Generated_Source\PSoC5/INFRA.c **** * Description:
   6:Generated_Source\PSoC5/INFRA.c **** *  This file contains API to enable firmware control of a Pins component.
   7:Generated_Source\PSoC5/INFRA.c **** *
   8:Generated_Source\PSoC5/INFRA.c **** * Note:
   9:Generated_Source\PSoC5/INFRA.c **** *
  10:Generated_Source\PSoC5/INFRA.c **** ********************************************************************************
  11:Generated_Source\PSoC5/INFRA.c **** * Copyright 2008-2015, Cypress Semiconductor Corporation.  All rights reserved.
  12:Generated_Source\PSoC5/INFRA.c **** * You may use this file only in accordance with the license, terms, conditions, 
  13:Generated_Source\PSoC5/INFRA.c **** * disclaimers, and limitations in the end user license agreement accompanying 
  14:Generated_Source\PSoC5/INFRA.c **** * the software package with which this file was provided.
  15:Generated_Source\PSoC5/INFRA.c **** *******************************************************************************/
  16:Generated_Source\PSoC5/INFRA.c **** 
  17:Generated_Source\PSoC5/INFRA.c **** #include "cytypes.h"
  18:Generated_Source\PSoC5/INFRA.c **** #include "INFRA.h"
  19:Generated_Source\PSoC5/INFRA.c **** 
  20:Generated_Source\PSoC5/INFRA.c **** /* APIs are not generated for P15[7:6] on PSoC 5 */
  21:Generated_Source\PSoC5/INFRA.c **** #if !(CY_PSOC5A &&\
  22:Generated_Source\PSoC5/INFRA.c **** 	 INFRA__PORT == 15 && ((INFRA__MASK & 0xC0) != 0))
  23:Generated_Source\PSoC5/INFRA.c **** 
  24:Generated_Source\PSoC5/INFRA.c **** 
  25:Generated_Source\PSoC5/INFRA.c **** /*******************************************************************************
  26:Generated_Source\PSoC5/INFRA.c **** * Function Name: INFRA_Write
  27:Generated_Source\PSoC5/INFRA.c **** ****************************************************************************//**
  28:Generated_Source\PSoC5/INFRA.c **** *
  29:Generated_Source\PSoC5/INFRA.c **** * \brief Writes the value to the physical port (data output register), masking
  30:Generated_Source\PSoC5/INFRA.c **** *  and shifting the bits appropriately. 
ARM GAS  C:\Users\nikod\AppData\Local\Temp\ccCC7BR4.s 			page 2


  31:Generated_Source\PSoC5/INFRA.c **** *
  32:Generated_Source\PSoC5/INFRA.c **** * The data output register controls the signal applied to the physical pin in 
  33:Generated_Source\PSoC5/INFRA.c **** * conjunction with the drive mode parameter. This function avoids changing 
  34:Generated_Source\PSoC5/INFRA.c **** * other bits in the port by using the appropriate method (read-modify-write or
  35:Generated_Source\PSoC5/INFRA.c **** * bit banding).
  36:Generated_Source\PSoC5/INFRA.c **** *
  37:Generated_Source\PSoC5/INFRA.c **** * <b>Note</b> This function should not be used on a hardware digital output pin 
  38:Generated_Source\PSoC5/INFRA.c **** * as it is driven by the hardware signal attached to it.
  39:Generated_Source\PSoC5/INFRA.c **** *
  40:Generated_Source\PSoC5/INFRA.c **** * \param value
  41:Generated_Source\PSoC5/INFRA.c **** *  Value to write to the component instance.
  42:Generated_Source\PSoC5/INFRA.c **** *
  43:Generated_Source\PSoC5/INFRA.c **** * \return 
  44:Generated_Source\PSoC5/INFRA.c **** *  None 
  45:Generated_Source\PSoC5/INFRA.c **** *
  46:Generated_Source\PSoC5/INFRA.c **** * \sideeffect
  47:Generated_Source\PSoC5/INFRA.c **** *  If you use read-modify-write operations that are not atomic; the Interrupt 
  48:Generated_Source\PSoC5/INFRA.c **** *  Service Routines (ISR) can cause corruption of this function. An ISR that 
  49:Generated_Source\PSoC5/INFRA.c **** *  interrupts this function and performs writes to the Pins component data 
  50:Generated_Source\PSoC5/INFRA.c **** *  register can cause corrupted port data. To avoid this issue, you should 
  51:Generated_Source\PSoC5/INFRA.c **** *  either use the Per-Pin APIs (primary method) or disable interrupts around 
  52:Generated_Source\PSoC5/INFRA.c **** *  this function.
  53:Generated_Source\PSoC5/INFRA.c **** *
  54:Generated_Source\PSoC5/INFRA.c **** * \funcusage
  55:Generated_Source\PSoC5/INFRA.c **** *  \snippet INFRA_SUT.c usage_INFRA_Write
  56:Generated_Source\PSoC5/INFRA.c **** *******************************************************************************/
  57:Generated_Source\PSoC5/INFRA.c **** void INFRA_Write(uint8 value)
  58:Generated_Source\PSoC5/INFRA.c **** {
  28              		.loc 1 58 0
  29              		.cfi_startproc
  30              		@ args = 0, pretend = 0, frame = 0
  31              		@ frame_needed = 0, uses_anonymous_args = 0
  32              		@ link register save eliminated.
  33              	.LVL0:
  59:Generated_Source\PSoC5/INFRA.c ****     uint8 staticBits = (INFRA_DR & (uint8)(~INFRA_MASK));
  34              		.loc 1 59 0
  35 0000 044A     		ldr	r2, .L2
  36 0002 1378     		ldrb	r3, [r2]	@ zero_extendqisi2
  37 0004 03F0FE03 		and	r3, r3, #254
  38              	.LVL1:
  60:Generated_Source\PSoC5/INFRA.c ****     INFRA_DR = staticBits | ((uint8)(value << INFRA_SHIFT) & INFRA_MASK);
  39              		.loc 1 60 0
  40 0008 00F00100 		and	r0, r0, #1
  41              	.LVL2:
  42 000c 1843     		orrs	r0, r0, r3
  43 000e 1070     		strb	r0, [r2]
  44 0010 7047     		bx	lr
  45              	.L3:
  46 0012 00BF     		.align	2
  47              	.L2:
  48 0014 20510040 		.word	1073762592
  49              		.cfi_endproc
  50              	.LFE0:
  51              		.size	INFRA_Write, .-INFRA_Write
  52              		.section	.text.INFRA_SetDriveMode,"ax",%progbits
  53              		.align	2
  54              		.global	INFRA_SetDriveMode
ARM GAS  C:\Users\nikod\AppData\Local\Temp\ccCC7BR4.s 			page 3


  55              		.thumb
  56              		.thumb_func
  57              		.type	INFRA_SetDriveMode, %function
  58              	INFRA_SetDriveMode:
  59              	.LFB1:
  61:Generated_Source\PSoC5/INFRA.c **** }
  62:Generated_Source\PSoC5/INFRA.c **** 
  63:Generated_Source\PSoC5/INFRA.c **** 
  64:Generated_Source\PSoC5/INFRA.c **** /*******************************************************************************
  65:Generated_Source\PSoC5/INFRA.c **** * Function Name: INFRA_SetDriveMode
  66:Generated_Source\PSoC5/INFRA.c **** ****************************************************************************//**
  67:Generated_Source\PSoC5/INFRA.c **** *
  68:Generated_Source\PSoC5/INFRA.c **** * \brief Sets the drive mode for each of the Pins component's pins.
  69:Generated_Source\PSoC5/INFRA.c **** * 
  70:Generated_Source\PSoC5/INFRA.c **** * <b>Note</b> This affects all pins in the Pins component instance. Use the
  71:Generated_Source\PSoC5/INFRA.c **** * Per-Pin APIs if you wish to control individual pin's drive modes.
  72:Generated_Source\PSoC5/INFRA.c **** *
  73:Generated_Source\PSoC5/INFRA.c **** * \param mode
  74:Generated_Source\PSoC5/INFRA.c **** *  Mode for the selected signals. Valid options are documented in 
  75:Generated_Source\PSoC5/INFRA.c **** *  \ref driveMode.
  76:Generated_Source\PSoC5/INFRA.c **** *
  77:Generated_Source\PSoC5/INFRA.c **** * \return
  78:Generated_Source\PSoC5/INFRA.c **** *  None
  79:Generated_Source\PSoC5/INFRA.c **** *
  80:Generated_Source\PSoC5/INFRA.c **** * \sideeffect
  81:Generated_Source\PSoC5/INFRA.c **** *  If you use read-modify-write operations that are not atomic, the ISR can
  82:Generated_Source\PSoC5/INFRA.c **** *  cause corruption of this function. An ISR that interrupts this function 
  83:Generated_Source\PSoC5/INFRA.c **** *  and performs writes to the Pins component Drive Mode registers can cause 
  84:Generated_Source\PSoC5/INFRA.c **** *  corrupted port data. To avoid this issue, you should either use the Per-Pin
  85:Generated_Source\PSoC5/INFRA.c **** *  APIs (primary method) or disable interrupts around this function.
  86:Generated_Source\PSoC5/INFRA.c **** *
  87:Generated_Source\PSoC5/INFRA.c **** * \funcusage
  88:Generated_Source\PSoC5/INFRA.c **** *  \snippet INFRA_SUT.c usage_INFRA_SetDriveMode
  89:Generated_Source\PSoC5/INFRA.c **** *******************************************************************************/
  90:Generated_Source\PSoC5/INFRA.c **** void INFRA_SetDriveMode(uint8 mode)
  91:Generated_Source\PSoC5/INFRA.c **** {
  60              		.loc 1 91 0
  61              		.cfi_startproc
  62              		@ args = 0, pretend = 0, frame = 0
  63              		@ frame_needed = 0, uses_anonymous_args = 0
  64              		@ link register save eliminated.
  65              	.LVL3:
  92:Generated_Source\PSoC5/INFRA.c **** 	CyPins_SetPinDriveMode(INFRA_0, mode);
  66              		.loc 1 92 0
  67 0000 044A     		ldr	r2, .L5
  68 0002 1378     		ldrb	r3, [r2]	@ zero_extendqisi2
  69 0004 03F0F103 		and	r3, r3, #241
  70 0008 00F00E00 		and	r0, r0, #14
  71              	.LVL4:
  72 000c 1843     		orrs	r0, r0, r3
  73 000e 1070     		strb	r0, [r2]
  74 0010 7047     		bx	lr
  75              	.L6:
  76 0012 00BF     		.align	2
  77              	.L5:
  78 0014 10500040 		.word	1073762320
  79              		.cfi_endproc
ARM GAS  C:\Users\nikod\AppData\Local\Temp\ccCC7BR4.s 			page 4


  80              	.LFE1:
  81              		.size	INFRA_SetDriveMode, .-INFRA_SetDriveMode
  82              		.section	.text.INFRA_Read,"ax",%progbits
  83              		.align	2
  84              		.global	INFRA_Read
  85              		.thumb
  86              		.thumb_func
  87              		.type	INFRA_Read, %function
  88              	INFRA_Read:
  89              	.LFB2:
  93:Generated_Source\PSoC5/INFRA.c **** }
  94:Generated_Source\PSoC5/INFRA.c **** 
  95:Generated_Source\PSoC5/INFRA.c **** 
  96:Generated_Source\PSoC5/INFRA.c **** /*******************************************************************************
  97:Generated_Source\PSoC5/INFRA.c **** * Function Name: INFRA_Read
  98:Generated_Source\PSoC5/INFRA.c **** ****************************************************************************//**
  99:Generated_Source\PSoC5/INFRA.c **** *
 100:Generated_Source\PSoC5/INFRA.c **** * \brief Reads the associated physical port (pin status register) and masks 
 101:Generated_Source\PSoC5/INFRA.c **** *  the required bits according to the width and bit position of the component
 102:Generated_Source\PSoC5/INFRA.c **** *  instance. 
 103:Generated_Source\PSoC5/INFRA.c **** *
 104:Generated_Source\PSoC5/INFRA.c **** * The pin's status register returns the current logic level present on the 
 105:Generated_Source\PSoC5/INFRA.c **** * physical pin.
 106:Generated_Source\PSoC5/INFRA.c **** *
 107:Generated_Source\PSoC5/INFRA.c **** * \return 
 108:Generated_Source\PSoC5/INFRA.c **** *  The current value for the pins in the component as a right justified number.
 109:Generated_Source\PSoC5/INFRA.c **** *
 110:Generated_Source\PSoC5/INFRA.c **** * \funcusage
 111:Generated_Source\PSoC5/INFRA.c **** *  \snippet INFRA_SUT.c usage_INFRA_Read  
 112:Generated_Source\PSoC5/INFRA.c **** *******************************************************************************/
 113:Generated_Source\PSoC5/INFRA.c **** uint8 INFRA_Read(void)
 114:Generated_Source\PSoC5/INFRA.c **** {
  90              		.loc 1 114 0
  91              		.cfi_startproc
  92              		@ args = 0, pretend = 0, frame = 0
  93              		@ frame_needed = 0, uses_anonymous_args = 0
  94              		@ link register save eliminated.
 115:Generated_Source\PSoC5/INFRA.c ****     return (INFRA_PS & INFRA_MASK) >> INFRA_SHIFT;
  95              		.loc 1 115 0
  96 0000 024B     		ldr	r3, .L8
  97 0002 1878     		ldrb	r0, [r3]	@ zero_extendqisi2
 116:Generated_Source\PSoC5/INFRA.c **** }
  98              		.loc 1 116 0
  99 0004 00F00100 		and	r0, r0, #1
 100 0008 7047     		bx	lr
 101              	.L9:
 102 000a 00BF     		.align	2
 103              	.L8:
 104 000c 21510040 		.word	1073762593
 105              		.cfi_endproc
 106              	.LFE2:
 107              		.size	INFRA_Read, .-INFRA_Read
 108              		.section	.text.INFRA_ReadDataReg,"ax",%progbits
 109              		.align	2
 110              		.global	INFRA_ReadDataReg
 111              		.thumb
 112              		.thumb_func
ARM GAS  C:\Users\nikod\AppData\Local\Temp\ccCC7BR4.s 			page 5


 113              		.type	INFRA_ReadDataReg, %function
 114              	INFRA_ReadDataReg:
 115              	.LFB3:
 117:Generated_Source\PSoC5/INFRA.c **** 
 118:Generated_Source\PSoC5/INFRA.c **** 
 119:Generated_Source\PSoC5/INFRA.c **** /*******************************************************************************
 120:Generated_Source\PSoC5/INFRA.c **** * Function Name: INFRA_ReadDataReg
 121:Generated_Source\PSoC5/INFRA.c **** ****************************************************************************//**
 122:Generated_Source\PSoC5/INFRA.c **** *
 123:Generated_Source\PSoC5/INFRA.c **** * \brief Reads the associated physical port's data output register and masks 
 124:Generated_Source\PSoC5/INFRA.c **** *  the correct bits according to the width and bit position of the component 
 125:Generated_Source\PSoC5/INFRA.c **** *  instance. 
 126:Generated_Source\PSoC5/INFRA.c **** *
 127:Generated_Source\PSoC5/INFRA.c **** * The data output register controls the signal applied to the physical pin in 
 128:Generated_Source\PSoC5/INFRA.c **** * conjunction with the drive mode parameter. This is not the same as the 
 129:Generated_Source\PSoC5/INFRA.c **** * preferred INFRA_Read() API because the 
 130:Generated_Source\PSoC5/INFRA.c **** * INFRA_ReadDataReg() reads the data register instead of the status 
 131:Generated_Source\PSoC5/INFRA.c **** * register. For output pins this is a useful function to determine the value 
 132:Generated_Source\PSoC5/INFRA.c **** * just written to the pin.
 133:Generated_Source\PSoC5/INFRA.c **** *
 134:Generated_Source\PSoC5/INFRA.c **** * \return 
 135:Generated_Source\PSoC5/INFRA.c **** *  The current value of the data register masked and shifted into a right 
 136:Generated_Source\PSoC5/INFRA.c **** *  justified number for the component instance.
 137:Generated_Source\PSoC5/INFRA.c **** *
 138:Generated_Source\PSoC5/INFRA.c **** * \funcusage
 139:Generated_Source\PSoC5/INFRA.c **** *  \snippet INFRA_SUT.c usage_INFRA_ReadDataReg 
 140:Generated_Source\PSoC5/INFRA.c **** *******************************************************************************/
 141:Generated_Source\PSoC5/INFRA.c **** uint8 INFRA_ReadDataReg(void)
 142:Generated_Source\PSoC5/INFRA.c **** {
 116              		.loc 1 142 0
 117              		.cfi_startproc
 118              		@ args = 0, pretend = 0, frame = 0
 119              		@ frame_needed = 0, uses_anonymous_args = 0
 120              		@ link register save eliminated.
 143:Generated_Source\PSoC5/INFRA.c ****     return (INFRA_DR & INFRA_MASK) >> INFRA_SHIFT;
 121              		.loc 1 143 0
 122 0000 024B     		ldr	r3, .L11
 123 0002 1878     		ldrb	r0, [r3]	@ zero_extendqisi2
 144:Generated_Source\PSoC5/INFRA.c **** }
 124              		.loc 1 144 0
 125 0004 00F00100 		and	r0, r0, #1
 126 0008 7047     		bx	lr
 127              	.L12:
 128 000a 00BF     		.align	2
 129              	.L11:
 130 000c 20510040 		.word	1073762592
 131              		.cfi_endproc
 132              	.LFE3:
 133              		.size	INFRA_ReadDataReg, .-INFRA_ReadDataReg
 134              		.section	.text.INFRA_SetInterruptMode,"ax",%progbits
 135              		.align	2
 136              		.global	INFRA_SetInterruptMode
 137              		.thumb
 138              		.thumb_func
 139              		.type	INFRA_SetInterruptMode, %function
 140              	INFRA_SetInterruptMode:
 141              	.LFB4:
ARM GAS  C:\Users\nikod\AppData\Local\Temp\ccCC7BR4.s 			page 6


 145:Generated_Source\PSoC5/INFRA.c **** 
 146:Generated_Source\PSoC5/INFRA.c **** 
 147:Generated_Source\PSoC5/INFRA.c **** /* If interrupt is connected for this Pins component */ 
 148:Generated_Source\PSoC5/INFRA.c **** #if defined(INFRA_INTSTAT) 
 149:Generated_Source\PSoC5/INFRA.c **** 
 150:Generated_Source\PSoC5/INFRA.c ****     /*******************************************************************************
 151:Generated_Source\PSoC5/INFRA.c ****     * Function Name: INFRA_SetInterruptMode
 152:Generated_Source\PSoC5/INFRA.c ****     ****************************************************************************//**
 153:Generated_Source\PSoC5/INFRA.c ****     *
 154:Generated_Source\PSoC5/INFRA.c ****     * \brief Configures the interrupt mode for each of the Pins component's
 155:Generated_Source\PSoC5/INFRA.c ****     *  pins. Alternatively you may set the interrupt mode for all the pins
 156:Generated_Source\PSoC5/INFRA.c ****     *  specified in the Pins component.
 157:Generated_Source\PSoC5/INFRA.c ****     *
 158:Generated_Source\PSoC5/INFRA.c ****     *  <b>Note</b> The interrupt is port-wide and therefore any enabled pin
 159:Generated_Source\PSoC5/INFRA.c ****     *  interrupt may trigger it.
 160:Generated_Source\PSoC5/INFRA.c ****     *
 161:Generated_Source\PSoC5/INFRA.c ****     * \param position
 162:Generated_Source\PSoC5/INFRA.c ****     *  The pin position as listed in the Pins component. You may OR these to be 
 163:Generated_Source\PSoC5/INFRA.c ****     *  able to configure the interrupt mode of multiple pins within a Pins 
 164:Generated_Source\PSoC5/INFRA.c ****     *  component. Or you may use INFRA_INTR_ALL to configure the
 165:Generated_Source\PSoC5/INFRA.c ****     *  interrupt mode of all the pins in the Pins component.       
 166:Generated_Source\PSoC5/INFRA.c ****     *  - INFRA_0_INTR       (First pin in the list)
 167:Generated_Source\PSoC5/INFRA.c ****     *  - INFRA_1_INTR       (Second pin in the list)
 168:Generated_Source\PSoC5/INFRA.c ****     *  - ...
 169:Generated_Source\PSoC5/INFRA.c ****     *  - INFRA_INTR_ALL     (All pins in Pins component)
 170:Generated_Source\PSoC5/INFRA.c ****     *
 171:Generated_Source\PSoC5/INFRA.c ****     * \param mode
 172:Generated_Source\PSoC5/INFRA.c ****     *  Interrupt mode for the selected pins. Valid options are documented in
 173:Generated_Source\PSoC5/INFRA.c ****     *  \ref intrMode.
 174:Generated_Source\PSoC5/INFRA.c ****     *
 175:Generated_Source\PSoC5/INFRA.c ****     * \return 
 176:Generated_Source\PSoC5/INFRA.c ****     *  None
 177:Generated_Source\PSoC5/INFRA.c ****     *  
 178:Generated_Source\PSoC5/INFRA.c ****     * \sideeffect
 179:Generated_Source\PSoC5/INFRA.c ****     *  It is recommended that the interrupt be disabled before calling this 
 180:Generated_Source\PSoC5/INFRA.c ****     *  function to avoid unintended interrupt requests. Note that the interrupt
 181:Generated_Source\PSoC5/INFRA.c ****     *  type is port wide, and therefore will trigger for any enabled pin on the 
 182:Generated_Source\PSoC5/INFRA.c ****     *  port.
 183:Generated_Source\PSoC5/INFRA.c ****     *
 184:Generated_Source\PSoC5/INFRA.c ****     * \funcusage
 185:Generated_Source\PSoC5/INFRA.c ****     *  \snippet INFRA_SUT.c usage_INFRA_SetInterruptMode
 186:Generated_Source\PSoC5/INFRA.c ****     *******************************************************************************/
 187:Generated_Source\PSoC5/INFRA.c ****     void INFRA_SetInterruptMode(uint16 position, uint16 mode)
 188:Generated_Source\PSoC5/INFRA.c ****     {
 142              		.loc 1 188 0
 143              		.cfi_startproc
 144              		@ args = 0, pretend = 0, frame = 0
 145              		@ frame_needed = 0, uses_anonymous_args = 0
 146              		@ link register save eliminated.
 147              	.LVL5:
 189:Generated_Source\PSoC5/INFRA.c **** 		if((position & INFRA_0_INTR) != 0u) 
 148              		.loc 1 189 0
 149 0000 10F0010F 		tst	r0, #1
 150 0004 02D0     		beq	.L13
 190:Generated_Source\PSoC5/INFRA.c **** 		{ 
 191:Generated_Source\PSoC5/INFRA.c **** 			 INFRA_0_INTTYPE_REG = (uint8)mode; 
 151              		.loc 1 191 0
ARM GAS  C:\Users\nikod\AppData\Local\Temp\ccCC7BR4.s 			page 7


 152 0006 C9B2     		uxtb	r1, r1
 153              	.LVL6:
 154 0008 014B     		ldr	r3, .L15
 155 000a 1970     		strb	r1, [r3]
 156              	.L13:
 157 000c 7047     		bx	lr
 158              	.L16:
 159 000e 00BF     		.align	2
 160              	.L15:
 161 0010 10450040 		.word	1073759504
 162              		.cfi_endproc
 163              	.LFE4:
 164              		.size	INFRA_SetInterruptMode, .-INFRA_SetInterruptMode
 165              		.section	.text.INFRA_ClearInterrupt,"ax",%progbits
 166              		.align	2
 167              		.global	INFRA_ClearInterrupt
 168              		.thumb
 169              		.thumb_func
 170              		.type	INFRA_ClearInterrupt, %function
 171              	INFRA_ClearInterrupt:
 172              	.LFB5:
 192:Generated_Source\PSoC5/INFRA.c **** 		}
 193:Generated_Source\PSoC5/INFRA.c ****     }
 194:Generated_Source\PSoC5/INFRA.c ****     
 195:Generated_Source\PSoC5/INFRA.c ****     
 196:Generated_Source\PSoC5/INFRA.c ****     /*******************************************************************************
 197:Generated_Source\PSoC5/INFRA.c ****     * Function Name: INFRA_ClearInterrupt
 198:Generated_Source\PSoC5/INFRA.c ****     ****************************************************************************//**
 199:Generated_Source\PSoC5/INFRA.c ****     *
 200:Generated_Source\PSoC5/INFRA.c ****     * \brief Clears any active interrupts attached with the component and returns 
 201:Generated_Source\PSoC5/INFRA.c ****     *  the value of the interrupt status register allowing determination of which
 202:Generated_Source\PSoC5/INFRA.c ****     *  pins generated an interrupt event.
 203:Generated_Source\PSoC5/INFRA.c ****     *
 204:Generated_Source\PSoC5/INFRA.c ****     * \return 
 205:Generated_Source\PSoC5/INFRA.c ****     *  The right-shifted current value of the interrupt status register. Each pin 
 206:Generated_Source\PSoC5/INFRA.c ****     *  has one bit set if it generated an interrupt event. For example, bit 0 is 
 207:Generated_Source\PSoC5/INFRA.c ****     *  for pin 0 and bit 1 is for pin 1 of the Pins component.
 208:Generated_Source\PSoC5/INFRA.c ****     *  
 209:Generated_Source\PSoC5/INFRA.c ****     * \sideeffect
 210:Generated_Source\PSoC5/INFRA.c ****     *  Clears all bits of the physical port's interrupt status register, not just
 211:Generated_Source\PSoC5/INFRA.c ****     *  those associated with the Pins component.
 212:Generated_Source\PSoC5/INFRA.c ****     *
 213:Generated_Source\PSoC5/INFRA.c ****     * \funcusage
 214:Generated_Source\PSoC5/INFRA.c ****     *  \snippet INFRA_SUT.c usage_INFRA_ClearInterrupt
 215:Generated_Source\PSoC5/INFRA.c ****     *******************************************************************************/
 216:Generated_Source\PSoC5/INFRA.c ****     uint8 INFRA_ClearInterrupt(void)
 217:Generated_Source\PSoC5/INFRA.c ****     {
 173              		.loc 1 217 0
 174              		.cfi_startproc
 175              		@ args = 0, pretend = 0, frame = 0
 176              		@ frame_needed = 0, uses_anonymous_args = 0
 177              		@ link register save eliminated.
 218:Generated_Source\PSoC5/INFRA.c ****         return (INFRA_INTSTAT & INFRA_MASK) >> INFRA_SHIFT;
 178              		.loc 1 218 0
 179 0000 024B     		ldr	r3, .L18
 180 0002 1878     		ldrb	r0, [r3]	@ zero_extendqisi2
 219:Generated_Source\PSoC5/INFRA.c ****     }
ARM GAS  C:\Users\nikod\AppData\Local\Temp\ccCC7BR4.s 			page 8


 181              		.loc 1 219 0
 182 0004 00F00100 		and	r0, r0, #1
 183 0008 7047     		bx	lr
 184              	.L19:
 185 000a 00BF     		.align	2
 186              	.L18:
 187 000c 82450040 		.word	1073759618
 188              		.cfi_endproc
 189              	.LFE5:
 190              		.size	INFRA_ClearInterrupt, .-INFRA_ClearInterrupt
 191              		.text
 192              	.Letext0:
 193              		.file 2 "Generated_Source\\PSoC5\\cytypes.h"