ARM GAS  C:\Users\nikod\AppData\Local\Temp\ccBKZm8h.s 			page 1


   1              		.syntax unified
   2              		.cpu cortex-m3
   3              		.fpu softvfp
   4              		.eabi_attribute 20, 1
   5              		.eabi_attribute 21, 1
   6              		.eabi_attribute 23, 3
   7              		.eabi_attribute 24, 1
   8              		.eabi_attribute 25, 1
   9              		.eabi_attribute 26, 1
  10              		.eabi_attribute 30, 1
  11              		.eabi_attribute 34, 1
  12              		.eabi_attribute 18, 4
  13              		.thumb
  14              		.syntax unified
  15              		.file	"main.c"
  16              		.text
  17              	.Ltext0:
  18              		.cfi_sections	.debug_frame
  19              		.section	.text.InterruptFoto,"ax",%progbits
  20              		.align	2
  21              		.global	InterruptFoto
  22              		.thumb
  23              		.thumb_func
  24              		.type	InterruptFoto, %function
  25              	InterruptFoto:
  26              	.LFB63:
  27              		.file 1 "main.c"
   1:main.c        **** /* ========================================
   2:main.c        ****  *
   3:main.c        ****  * Copyright YOUR COMPANY, THE YEAR
   4:main.c        ****  * All Rights Reserved
   5:main.c        ****  * UNPUBLISHED, LICENSED SOFTWARE.
   6:main.c        ****  *
   7:main.c        ****  * CONFIDENTIAL AND PROPRIETARY INFORMATION
   8:main.c        ****  * WHICH IS THE PROPERTY OF your company.
   9:main.c        ****  *
  10:main.c        ****  * ========================================
  11:main.c        **** */
  12:main.c        **** #include "project.h"
  13:main.c        **** 
  14:main.c        **** 
  15:main.c        **** CY_ISR(InterruptFoto){
  28              		.loc 1 15 0
  29              		.cfi_startproc
  30              		@ args = 0, pretend = 0, frame = 0
  31              		@ frame_needed = 0, uses_anonymous_args = 0
  32 0000 08B5     		push	{r3, lr}
  33              		.cfi_def_cfa_offset 8
  34              		.cfi_offset 3, -8
  35              		.cfi_offset 14, -4
  16:main.c        ****     LED_Write(~LED_Read()); 
  36              		.loc 1 16 0
  37 0002 FFF7FEFF 		bl	LED_Read
  38              	.LVL0:
  39 0006 C043     		mvns	r0, r0
  40 0008 C0B2     		uxtb	r0, r0
  41 000a FFF7FEFF 		bl	LED_Write
ARM GAS  C:\Users\nikod\AppData\Local\Temp\ccBKZm8h.s 			page 2


  42              	.LVL1:
  17:main.c        ****     INFRA_ClearInterrupt();
  43              		.loc 1 17 0
  44 000e FFF7FEFF 		bl	INFRA_ClearInterrupt
  45              	.LVL2:
  46 0012 08BD     		pop	{r3, pc}
  47              		.cfi_endproc
  48              	.LFE63:
  49              		.size	InterruptFoto, .-InterruptFoto
  50              		.section	.text.main,"ax",%progbits
  51              		.align	2
  52              		.global	main
  53              		.thumb
  54              		.thumb_func
  55              		.type	main, %function
  56              	main:
  57              	.LFB64:
  18:main.c        **** }
  19:main.c        **** int main(void)
  20:main.c        **** {   
  58              		.loc 1 20 0
  59              		.cfi_startproc
  60              		@ Volatile: function does not return.
  61              		@ args = 0, pretend = 0, frame = 0
  62              		@ frame_needed = 0, uses_anonymous_args = 0
  63 0000 08B5     		push	{r3, lr}
  64              		.cfi_def_cfa_offset 8
  65              		.cfi_offset 3, -8
  66              		.cfi_offset 14, -4
  21:main.c        ****     CyGlobalIntEnable; /* Enable global interrupts. */
  67              		.loc 1 21 0
  68              		.syntax unified
  69              	@ 21 "main.c" 1
  70 0002 62B6     		CPSIE   i
  71              	@ 0 "" 2
  22:main.c        ****     ISR_FOTO_StartEx(InterruptFoto);
  72              		.loc 1 22 0
  73              		.thumb
  74              		.syntax unified
  75 0004 0348     		ldr	r0, .L6
  76 0006 FFF7FEFF 		bl	ISR_FOTO_StartEx
  77              	.LVL3:
  23:main.c        ****     LED_Write(1);
  78              		.loc 1 23 0
  79 000a 0120     		movs	r0, #1
  80 000c FFF7FEFF 		bl	LED_Write
  81              	.LVL4:
  82              	.L4:
  83 0010 FEE7     		b	.L4
  84              	.L7:
  85 0012 00BF     		.align	2
  86              	.L6:
  87 0014 00000000 		.word	InterruptFoto
  88              		.cfi_endproc
  89              	.LFE64:
  90              		.size	main, .-main
  91              		.text
ARM GAS  C:\Users\nikod\AppData\Local\Temp\ccBKZm8h.s 			page 3


  92              	.Letext0:
  93              		.file 2 "c:\\program files (x86)\\cypress\\psoc creator\\4.2\\psoc creator\\import\\gnu\\arm\\5.4.
  94              		.file 3 "c:\\program files (x86)\\cypress\\psoc creator\\4.2\\psoc creator\\import\\gnu\\arm\\5.4.
  95              		.file 4 "Generated_Source\\PSoC5/LED.h"
  96              		.file 5 "Generated_Source\\PSoC5/INFRA.h"
  97              		.file 6 "Generated_Source\\PSoC5/ISR_FOTO.h"
  98              		.file 7 "Generated_Source\\PSoC5/core_cm3.h"