ARM GAS  C:\Users\nikod\AppData\Local\Temp\cc3lIa3a.s 			page 1


   1              		.syntax unified
   2              		.cpu cortex-m3
   3              		.fpu softvfp
   4              		.eabi_attribute 20, 1
   5              		.eabi_attribute 21, 1
   6              		.eabi_attribute 23, 3
   7              		.eabi_attribute 24, 1
   8              		.eabi_attribute 25, 1
   9              		.eabi_attribute 26, 1
  10              		.eabi_attribute 30, 1
  11              		.eabi_attribute 34, 1
  12              		.eabi_attribute 18, 4
  13              		.thumb
  14              		.syntax unified
  15              		.file	"main.c"
  16              		.text
  17              	.Ltext0:
  18              		.cfi_sections	.debug_frame
  19              		.section	.text.DS_begintx,"ax",%progbits
  20              		.align	2
  21              		.global	DS_begintx
  22              		.thumb
  23              		.thumb_func
  24              		.type	DS_begintx, %function
  25              	DS_begintx:
  26              	.LFB63:
  27              		.file 1 "main.c"
   1:main.c        **** /* ========================================
   2:main.c        ****  *
   3:main.c        ****  * Copyright YOUR COMPANY, THE YEAR
   4:main.c        ****  * All Rights Reserved
   5:main.c        ****  * UNPUBLISHED, LICENSED SOFTWARE.
   6:main.c        ****  *
   7:main.c        ****  * CONFIDENTIAL AND PROPRIETARY INFORMATION
   8:main.c        ****  * WHICH IS THE PROPERTY OF your company.
   9:main.c        ****  *
  10:main.c        ****  * ========================================
  11:main.c        **** */
  12:main.c        **** #include "project.h"
  13:main.c        **** 
  14:main.c        **** #define DS1307_dir 0x68         
  15:main.c        **** #define ds1307_dir_memory 0x00
  16:main.c        **** #define direccion_de_registro_control 0x07
  17:main.c        **** #define registro_control 0b10010001
  18:main.c        **** 
  19:main.c        **** typedef union
  20:main.c        **** {struct{
  21:main.c        ****   uint8_t sec;
  22:main.c        ****   uint8_t min;
  23:main.c        ****   uint8_t hour;
  24:main.c        ****   uint8_t weekDay;
  25:main.c        ****   uint8_t date;
  26:main.c        ****   uint8_t month;
  27:main.c        ****   uint8_t year;  
  28:main.c        **** };
  29:main.c        **** uint8_t datos[8];
  30:main.c        **** }rtc_t;
ARM GAS  C:\Users\nikod\AppData\Local\Temp\cc3lIa3a.s 			page 2


  31:main.c        **** 
  32:main.c        **** rtc_t ds;
  33:main.c        **** uint16 aux[3]={0,0,0};
  34:main.c        **** volatile uint8 de=0;//Muestra Hora
  35:main.c        **** volatile uint16 m=0;//  Numero de datos guardados
  36:main.c        **** volatile uint16 n=0;// Cuenta de datos
  37:main.c        **** volatile int k=0;//Cuenta dato actual
  38:main.c        **** 
  39:main.c        **** 
  40:main.c        **** void DS_begintx (void){
  28              		.loc 1 40 0
  29              		.cfi_startproc
  30              		@ args = 0, pretend = 0, frame = 0
  31              		@ frame_needed = 0, uses_anonymous_args = 0
  32 0000 08B5     		push	{r3, lr}
  33              		.cfi_def_cfa_offset 8
  34              		.cfi_offset 3, -8
  35              		.cfi_offset 14, -4
  36              	.L2:
  41:main.c        ****         do{
  42:main.c        ****                 //Espera mienstras el esclavo le responde
  43:main.c        ****         }while(I2C_MasterSendStart(DS1307_dir, I2C_WRITE_XFER_MODE)!=I2C_MSTR_NO_ERROR);
  37              		.loc 1 43 0 discriminator 1
  38 0002 0021     		movs	r1, #0
  39 0004 6820     		movs	r0, #104
  40 0006 FFF7FEFF 		bl	I2C_MasterSendStart
  41              	.LVL0:
  42 000a 0028     		cmp	r0, #0
  43 000c F9D1     		bne	.L2
  44:main.c        **** }
  44              		.loc 1 44 0
  45 000e 08BD     		pop	{r3, pc}
  46              		.cfi_endproc
  47              	.LFE63:
  48              		.size	DS_begintx, .-DS_begintx
  49              		.section	.text.DS_init,"ax",%progbits
  50              		.align	2
  51              		.global	DS_init
  52              		.thumb
  53              		.thumb_func
  54              		.type	DS_init, %function
  55              	DS_init:
  56              	.LFB64:
  45:main.c        **** 
  46:main.c        **** void DS_init(void){
  57              		.loc 1 46 0
  58              		.cfi_startproc
  59              		@ args = 0, pretend = 0, frame = 0
  60              		@ frame_needed = 0, uses_anonymous_args = 0
  61 0000 10B5     		push	{r4, lr}
  62              		.cfi_def_cfa_offset 8
  63              		.cfi_offset 4, -8
  64              		.cfi_offset 14, -4
  47:main.c        ****     DS_begintx();
  65              		.loc 1 47 0
  66 0002 FFF7FEFF 		bl	DS_begintx
  67              	.LVL1:
ARM GAS  C:\Users\nikod\AppData\Local\Temp\cc3lIa3a.s 			page 3


  48:main.c        ****     I2C_MasterWriteByte(direccion_de_registro_control);  
  68              		.loc 1 48 0
  69 0006 0720     		movs	r0, #7
  70 0008 FFF7FEFF 		bl	I2C_MasterWriteByte
  71              	.LVL2:
  49:main.c        ****     I2C_MasterWriteByte(registro_control);
  72              		.loc 1 49 0
  73 000c 9120     		movs	r0, #145
  74 000e FFF7FEFF 		bl	I2C_MasterWriteByte
  75              	.LVL3:
  50:main.c        ****     I2C_MasterSendStop();
  76              		.loc 1 50 0
  77 0012 FFF7FEFF 		bl	I2C_MasterSendStop
  78              	.LVL4:
  79              	.LBB2:
  51:main.c        ****     for(int i=0;i<1000;i++){
  80              		.loc 1 51 0
  81 0016 0024     		movs	r4, #0
  82 0018 04E0     		b	.L5
  83              	.LVL5:
  84              	.L6:
  52:main.c        ****         EEPROM_WriteByte(0x00,i);}  
  85              		.loc 1 52 0 discriminator 3
  86 001a A1B2     		uxth	r1, r4
  87 001c 0020     		movs	r0, #0
  88 001e FFF7FEFF 		bl	EEPROM_WriteByte
  89              	.LVL6:
  51:main.c        ****     for(int i=0;i<1000;i++){
  90              		.loc 1 51 0 discriminator 3
  91 0022 0134     		adds	r4, r4, #1
  92              	.LVL7:
  93              	.L5:
  51:main.c        ****     for(int i=0;i<1000;i++){
  94              		.loc 1 51 0 is_stmt 0 discriminator 1
  95 0024 B4F57A7F 		cmp	r4, #1000
  96 0028 F7DB     		blt	.L6
  97              	.LBE2:
  53:main.c        **** }
  98              		.loc 1 53 0 is_stmt 1
  99 002a 10BD     		pop	{r4, pc}
 100              		.cfi_endproc
 101              	.LFE64:
 102              		.size	DS_init, .-DS_init
 103              		.section	.text.DS_set_data,"ax",%progbits
 104              		.align	2
 105              		.global	DS_set_data
 106              		.thumb
 107              		.thumb_func
 108              		.type	DS_set_data, %function
 109              	DS_set_data:
 110              	.LFB65:
  54:main.c        **** 
  55:main.c        **** void DS_set_data(){
 111              		.loc 1 55 0
 112              		.cfi_startproc
 113              		@ args = 0, pretend = 0, frame = 0
 114              		@ frame_needed = 0, uses_anonymous_args = 0
ARM GAS  C:\Users\nikod\AppData\Local\Temp\cc3lIa3a.s 			page 4


 115 0000 10B5     		push	{r4, lr}
 116              		.cfi_def_cfa_offset 8
 117              		.cfi_offset 4, -8
 118              		.cfi_offset 14, -4
 119              	.LVL8:
  56:main.c        ****     uint8 i; 
  57:main.c        ****     
  58:main.c        ****     for(i=0;i<=7;i++){
 120              		.loc 1 58 0
 121 0002 0024     		movs	r4, #0
 122 0004 0CE0     		b	.L9
 123              	.LVL9:
 124              	.L10:
  59:main.c        ****         DS_begintx();
 125              		.loc 1 59 0 discriminator 3
 126 0006 FFF7FEFF 		bl	DS_begintx
 127              	.LVL10:
  60:main.c        ****         I2C_MasterWriteByte(i);     // Escribe la posicion 
 128              		.loc 1 60 0 discriminator 3
 129 000a 2046     		mov	r0, r4
 130 000c FFF7FEFF 		bl	I2C_MasterWriteByte
 131              	.LVL11:
  61:main.c        ****         I2C_MasterWriteByte(ds.datos[i]);            // Escribe el dato correspondiente
 132              		.loc 1 61 0 discriminator 3
 133 0010 054B     		ldr	r3, .L12
 134 0012 185D     		ldrb	r0, [r3, r4]	@ zero_extendqisi2
 135 0014 FFF7FEFF 		bl	I2C_MasterWriteByte
 136              	.LVL12:
  62:main.c        ****         I2C_MasterSendStop();
 137              		.loc 1 62 0 discriminator 3
 138 0018 FFF7FEFF 		bl	I2C_MasterSendStop
 139              	.LVL13:
  58:main.c        ****         DS_begintx();
 140              		.loc 1 58 0 discriminator 3
 141 001c 0134     		adds	r4, r4, #1
 142              	.LVL14:
 143 001e E4B2     		uxtb	r4, r4
 144              	.LVL15:
 145              	.L9:
  58:main.c        ****         DS_begintx();
 146              		.loc 1 58 0 is_stmt 0 discriminator 1
 147 0020 072C     		cmp	r4, #7
 148 0022 F0D9     		bls	.L10
  63:main.c        ****     }
  64:main.c        **** }
 149              		.loc 1 64 0 is_stmt 1
 150 0024 10BD     		pop	{r4, pc}
 151              	.LVL16:
 152              	.L13:
 153 0026 00BF     		.align	2
 154              	.L12:
 155 0028 00000000 		.word	ds
 156              		.cfi_endproc
 157              	.LFE65:
 158              		.size	DS_set_data, .-DS_set_data
 159              		.section	.text.DS_get_data,"ax",%progbits
 160              		.align	2
ARM GAS  C:\Users\nikod\AppData\Local\Temp\cc3lIa3a.s 			page 5


 161              		.global	DS_get_data
 162              		.thumb
 163              		.thumb_func
 164              		.type	DS_get_data, %function
 165              	DS_get_data:
 166              	.LFB66:
  65:main.c        **** 
  66:main.c        **** void DS_get_data(){        
 167              		.loc 1 66 0
 168              		.cfi_startproc
 169              		@ args = 0, pretend = 0, frame = 0
 170              		@ frame_needed = 0, uses_anonymous_args = 0
 171 0000 10B5     		push	{r4, lr}
 172              		.cfi_def_cfa_offset 8
 173              		.cfi_offset 4, -8
 174              		.cfi_offset 14, -4
 175              	.LVL17:
  67:main.c        ****         uint8 i;
  68:main.c        ****     for(i=0;i<=7;i++){
 176              		.loc 1 68 0
 177 0002 0024     		movs	r4, #0
 178 0004 11E0     		b	.L15
 179              	.LVL18:
 180              	.L16:
  69:main.c        ****         DS_begintx();
 181              		.loc 1 69 0 discriminator 3
 182 0006 FFF7FEFF 		bl	DS_begintx
 183              	.LVL19:
  70:main.c        ****         I2C_MasterWriteByte(i);//Pone direccion de memoria que quiere leer 
 184              		.loc 1 70 0 discriminator 3
 185 000a 2046     		mov	r0, r4
 186 000c FFF7FEFF 		bl	I2C_MasterWriteByte
 187              	.LVL20:
  71:main.c        ****         I2C_MasterSendRestart(DS1307_dir, I2C_READ_XFER_MODE); // Re transmite para obtener datos
 188              		.loc 1 71 0 discriminator 3
 189 0010 0121     		movs	r1, #1
 190 0012 6820     		movs	r0, #104
 191 0014 FFF7FEFF 		bl	I2C_MasterSendRestart
 192              	.LVL21:
  72:main.c        ****         ds.datos[i]=I2C_MasterReadByte(I2C_NAK_DATA);
 193              		.loc 1 72 0 discriminator 3
 194 0018 0020     		movs	r0, #0
 195 001a FFF7FEFF 		bl	I2C_MasterReadByte
 196              	.LVL22:
 197 001e 044B     		ldr	r3, .L18
 198 0020 1855     		strb	r0, [r3, r4]
  73:main.c        ****         I2C_MasterSendStop();
 199              		.loc 1 73 0 discriminator 3
 200 0022 FFF7FEFF 		bl	I2C_MasterSendStop
 201              	.LVL23:
  68:main.c        ****         DS_begintx();
 202              		.loc 1 68 0 discriminator 3
 203 0026 0134     		adds	r4, r4, #1
 204              	.LVL24:
 205 0028 E4B2     		uxtb	r4, r4
 206              	.LVL25:
 207              	.L15:
ARM GAS  C:\Users\nikod\AppData\Local\Temp\cc3lIa3a.s 			page 6


  68:main.c        ****         DS_begintx();
 208              		.loc 1 68 0 is_stmt 0 discriminator 1
 209 002a 072C     		cmp	r4, #7
 210 002c EBD9     		bls	.L16
  74:main.c        ****     }    
  75:main.c        **** }
 211              		.loc 1 75 0 is_stmt 1
 212 002e 10BD     		pop	{r4, pc}
 213              	.LVL26:
 214              	.L19:
 215              		.align	2
 216              	.L18:
 217 0030 00000000 		.word	ds
 218              		.cfi_endproc
 219              	.LFE66:
 220              		.size	DS_get_data, .-DS_get_data
 221              		.section	.text.E2PROM_16_R,"ax",%progbits
 222              		.align	2
 223              		.global	E2PROM_16_R
 224              		.thumb
 225              		.thumb_func
 226              		.type	E2PROM_16_R, %function
 227              	E2PROM_16_R:
 228              	.LFB67:
  76:main.c        **** 
  77:main.c        **** uint16 E2PROM_16_R(uint16 p){
 229              		.loc 1 77 0
 230              		.cfi_startproc
 231              		@ args = 0, pretend = 0, frame = 0
 232              		@ frame_needed = 0, uses_anonymous_args = 0
 233              	.LVL27:
 234 0000 38B5     		push	{r3, r4, r5, lr}
 235              		.cfi_def_cfa_offset 16
 236              		.cfi_offset 3, -16
 237              		.cfi_offset 4, -12
 238              		.cfi_offset 5, -8
 239              		.cfi_offset 14, -4
 240 0002 0546     		mov	r5, r0
  78:main.c        ****     uint16 temp;
  79:main.c        ****     temp=EEPROM_ReadByte(p+1)<<8;
 241              		.loc 1 79 0
 242 0004 0130     		adds	r0, r0, #1
 243              	.LVL28:
 244 0006 80B2     		uxth	r0, r0
 245 0008 FFF7FEFF 		bl	EEPROM_ReadByte
 246              	.LVL29:
 247 000c 0002     		lsls	r0, r0, #8
 248 000e 84B2     		uxth	r4, r0
 249              	.LVL30:
  80:main.c        ****     temp=temp+EEPROM_ReadByte(p);
 250              		.loc 1 80 0
 251 0010 2846     		mov	r0, r5
 252 0012 FFF7FEFF 		bl	EEPROM_ReadByte
 253              	.LVL31:
 254 0016 2044     		add	r0, r0, r4
 255              	.LVL32:
  81:main.c        ****     return temp;
ARM GAS  C:\Users\nikod\AppData\Local\Temp\cc3lIa3a.s 			page 7


  82:main.c        **** }
 256              		.loc 1 82 0
 257 0018 80B2     		uxth	r0, r0
 258 001a 38BD     		pop	{r3, r4, r5, pc}
 259              		.cfi_endproc
 260              	.LFE67:
 261              		.size	E2PROM_16_R, .-E2PROM_16_R
 262              		.section	.text.E2PROM_16_W,"ax",%progbits
 263              		.align	2
 264              		.global	E2PROM_16_W
 265              		.thumb
 266              		.thumb_func
 267              		.type	E2PROM_16_W, %function
 268              	E2PROM_16_W:
 269              	.LFB68:
  83:main.c        **** 
  84:main.c        **** void E2PROM_16_W(uint16 a,uint16 p){
 270              		.loc 1 84 0
 271              		.cfi_startproc
 272              		@ args = 0, pretend = 0, frame = 0
 273              		@ frame_needed = 0, uses_anonymous_args = 0
 274              	.LVL33:
 275 0000 38B5     		push	{r3, r4, r5, lr}
 276              		.cfi_def_cfa_offset 16
 277              		.cfi_offset 3, -16
 278              		.cfi_offset 4, -12
 279              		.cfi_offset 5, -8
 280              		.cfi_offset 14, -4
 281 0002 0546     		mov	r5, r0
 282 0004 0C46     		mov	r4, r1
 283              	.LVL34:
  85:main.c        ****     uint8 temp;
  86:main.c        ****     temp=(uint8)(0xFF&a);
  87:main.c        ****     EEPROM_WriteByte(temp,p);
 284              		.loc 1 87 0
 285 0006 C0B2     		uxtb	r0, r0
 286              	.LVL35:
 287 0008 FFF7FEFF 		bl	EEPROM_WriteByte
 288              	.LVL36:
  88:main.c        ****     temp=(uint8)(0xFF&(a>>8));
  89:main.c        ****     EEPROM_WriteByte(temp,(p+1));
 289              		.loc 1 89 0
 290 000c 611C     		adds	r1, r4, #1
 291 000e 89B2     		uxth	r1, r1
 292 0010 280A     		lsrs	r0, r5, #8
 293 0012 FFF7FEFF 		bl	EEPROM_WriteByte
 294              	.LVL37:
 295 0016 38BD     		pop	{r3, r4, r5, pc}
 296              		.cfi_endproc
 297              	.LFE68:
 298              		.size	E2PROM_16_W, .-E2PROM_16_W
 299              		.section	.text.visual,"ax",%progbits
 300              		.align	2
 301              		.global	visual
 302              		.thumb
 303              		.thumb_func
 304              		.type	visual, %function
ARM GAS  C:\Users\nikod\AppData\Local\Temp\cc3lIa3a.s 			page 8


 305              	visual:
 306              	.LFB69:
  90:main.c        **** }
  91:main.c        **** 
  92:main.c        **** 
  93:main.c        **** void visual(){
 307              		.loc 1 93 0
 308              		.cfi_startproc
 309              		@ args = 0, pretend = 0, frame = 0
 310              		@ frame_needed = 0, uses_anonymous_args = 0
 311 0000 10B5     		push	{r4, lr}
 312              		.cfi_def_cfa_offset 8
 313              		.cfi_offset 4, -8
 314              		.cfi_offset 14, -4
  94:main.c        ****         LCD_PrintNumber(0x01&(ds.hour>>4));
 315              		.loc 1 94 0
 316 0002 124C     		ldr	r4, .L26
 317 0004 A078     		ldrb	r0, [r4, #2]	@ zero_extendqisi2
 318 0006 C0F30010 		ubfx	r0, r0, #4, #1
 319 000a FFF7FEFF 		bl	LCD_PrintU32Number
 320              	.LVL38:
  95:main.c        ****         LCD_PrintNumber((0b00001111)&ds.hour);
 321              		.loc 1 95 0
 322 000e A078     		ldrb	r0, [r4, #2]	@ zero_extendqisi2
 323 0010 00F00F00 		and	r0, r0, #15
 324 0014 FFF7FEFF 		bl	LCD_PrintU32Number
 325              	.LVL39:
  96:main.c        ****         LCD_PutChar(':');
 326              		.loc 1 96 0
 327 0018 3A20     		movs	r0, #58
 328 001a FFF7FEFF 		bl	LCD_PutChar
 329              	.LVL40:
  97:main.c        ****         LCD_PrintNumber(ds.min>>4);
 330              		.loc 1 97 0
 331 001e 6078     		ldrb	r0, [r4, #1]	@ zero_extendqisi2
 332 0020 0009     		lsrs	r0, r0, #4
 333 0022 FFF7FEFF 		bl	LCD_PrintU32Number
 334              	.LVL41:
  98:main.c        ****         LCD_PrintNumber((0b00001111)&ds.min);
 335              		.loc 1 98 0
 336 0026 6078     		ldrb	r0, [r4, #1]	@ zero_extendqisi2
 337 0028 00F00F00 		and	r0, r0, #15
 338 002c FFF7FEFF 		bl	LCD_PrintU32Number
 339              	.LVL42:
  99:main.c        ****         LCD_PutChar(':');       
 340              		.loc 1 99 0
 341 0030 3A20     		movs	r0, #58
 342 0032 FFF7FEFF 		bl	LCD_PutChar
 343              	.LVL43:
 100:main.c        ****         LCD_PrintNumber(ds.sec>>4);
 344              		.loc 1 100 0
 345 0036 2078     		ldrb	r0, [r4]	@ zero_extendqisi2
 346 0038 0009     		lsrs	r0, r0, #4
 347 003a FFF7FEFF 		bl	LCD_PrintU32Number
 348              	.LVL44:
 101:main.c        ****         LCD_PrintNumber((0b00001111)&ds.sec);
 349              		.loc 1 101 0
ARM GAS  C:\Users\nikod\AppData\Local\Temp\cc3lIa3a.s 			page 9


 350 003e 2078     		ldrb	r0, [r4]	@ zero_extendqisi2
 351 0040 00F00F00 		and	r0, r0, #15
 352 0044 FFF7FEFF 		bl	LCD_PrintU32Number
 353              	.LVL45:
 354 0048 10BD     		pop	{r4, pc}
 355              	.L27:
 356 004a 00BF     		.align	2
 357              	.L26:
 358 004c 00000000 		.word	ds
 359              		.cfi_endproc
 360              	.LFE69:
 361              		.size	visual, .-visual
 362              		.section	.text.Inte,"ax",%progbits
 363              		.align	2
 364              		.global	Inte
 365              		.thumb
 366              		.thumb_func
 367              		.type	Inte, %function
 368              	Inte:
 369              	.LFB72:
 102:main.c        **** }
 103:main.c        **** 
 104:main.c        **** void visual2(){
 105:main.c        ****         LCD_PrintNumber(0x01&(ds.date>>4));
 106:main.c        ****         LCD_PrintNumber((0b00001111)&ds.date);
 107:main.c        ****         LCD_PutChar('/');
 108:main.c        ****         LCD_PrintNumber(ds.month>>4);
 109:main.c        ****         LCD_PrintNumber((0b00001111)&ds.month);
 110:main.c        ****         LCD_PutChar('/');       
 111:main.c        ****         LCD_PrintNumber(ds.year>>4);
 112:main.c        ****         LCD_PrintNumber((0b00001111)&ds.year);
 113:main.c        **** }
 114:main.c        **** 
 115:main.c        **** void EE_get_data(){
 116:main.c        ****                 
 117:main.c        ****                 LCD_ClearDisplay();
 118:main.c        ****                 LCD_Position(0,0);
 119:main.c        ****                 LCD_PrintNumber(E2PROM_16_R(9*k+2));
 120:main.c        ****                 LCD_PrintString(" mV");
 121:main.c        ****                 for(int j=0;j<7;j++){
 122:main.c        ****                     ds.datos[j]=EEPROM_ReadByte((uint16)(9*k+4+j));
 123:main.c        ****                 }    
 124:main.c        ****                 LCD_Position(0,8);
 125:main.c        ****                 visual2();
 126:main.c        ****                 LCD_Position(1,4);  
 127:main.c        ****                 visual();
 128:main.c        **** }
 129:main.c        **** 
 130:main.c        **** 
 131:main.c        **** CY_ISR(Inte){
 370              		.loc 1 131 0
 371              		.cfi_startproc
 372              		@ args = 0, pretend = 0, frame = 0
 373              		@ frame_needed = 0, uses_anonymous_args = 0
 374 0000 10B5     		push	{r4, lr}
 375              		.cfi_def_cfa_offset 8
 376              		.cfi_offset 4, -8
ARM GAS  C:\Users\nikod\AppData\Local\Temp\cc3lIa3a.s 			page 10


 377              		.cfi_offset 14, -4
 378              	.LVL46:
 132:main.c        ****     uint16 temp=0;
 133:main.c        ****     
 134:main.c        ****     aux[0]=aux[1];
 379              		.loc 1 134 0
 380 0002 3C4C     		ldr	r4, .L35
 381 0004 6388     		ldrh	r3, [r4, #2]
 382 0006 2380     		strh	r3, [r4]	@ movhi
 135:main.c        ****     aux[1]=aux[2];
 383              		.loc 1 135 0
 384 0008 A388     		ldrh	r3, [r4, #4]
 385 000a 6380     		strh	r3, [r4, #2]	@ movhi
 136:main.c        ****     ADC_StartConvert();
 386              		.loc 1 136 0
 387 000c FFF7FEFF 		bl	ADC_StartConvert
 388              	.LVL47:
 137:main.c        ****     ADC_IsEndConversion(ADC_WAIT_FOR_RESULT);
 389              		.loc 1 137 0
 390 0010 0020     		movs	r0, #0
 391 0012 FFF7FEFF 		bl	ADC_IsEndConversion
 392              	.LVL48:
 138:main.c        ****     temp=ADC_GetResult16();
 393              		.loc 1 138 0
 394 0016 FFF7FEFF 		bl	ADC_GetResult16
 395              	.LVL49:
 139:main.c        ****     aux[2]=ADC_CountsTo_mVolts(temp);
 396              		.loc 1 139 0
 397 001a FFF7FEFF 		bl	ADC_CountsTo_mVolts
 398              	.LVL50:
 399 001e 80B2     		uxth	r0, r0
 400 0020 A080     		strh	r0, [r4, #4]	@ movhi
 140:main.c        ****         if((aux[1]>aux[0])&(aux[1]>aux[2])&(aux[1]>=2500)){
 401              		.loc 1 140 0
 402 0022 6388     		ldrh	r3, [r4, #2]
 403 0024 2288     		ldrh	r2, [r4]
 404 0026 9342     		cmp	r3, r2
 405 0028 94BF     		ite	ls
 406 002a 0022     		movls	r2, #0
 407 002c 0122     		movhi	r2, #1
 408 002e 9842     		cmp	r0, r3
 409 0030 28BF     		it	cs
 410 0032 0022     		movcs	r2, #0
 411 0034 40F6C311 		movw	r1, #2499
 412 0038 8B42     		cmp	r3, r1
 413 003a 94BF     		ite	ls
 414 003c 0023     		movls	r3, #0
 415 003e 0123     		movhi	r3, #1
 416 0040 002A     		cmp	r2, #0
 417 0042 55D0     		beq	.L28
 418 0044 002B     		cmp	r3, #0
 419 0046 53D0     		beq	.L28
 141:main.c        ****             
 142:main.c        ****             if(m<9000){
 420              		.loc 1 142 0
 421 0048 E388     		ldrh	r3, [r4, #6]
 422 004a 9BB2     		uxth	r3, r3
ARM GAS  C:\Users\nikod\AppData\Local\Temp\cc3lIa3a.s 			page 11


 423 004c 42F22732 		movw	r2, #8999
 424 0050 9342     		cmp	r3, r2
 425 0052 04D8     		bhi	.L30
 143:main.c        ****             m=m+9; //cantidad de datos guardados
 426              		.loc 1 143 0
 427 0054 E388     		ldrh	r3, [r4, #6]
 428 0056 9BB2     		uxth	r3, r3
 429 0058 0933     		adds	r3, r3, #9
 430 005a 9BB2     		uxth	r3, r3
 431 005c E380     		strh	r3, [r4, #6]	@ movhi
 432              	.L30:
 144:main.c        ****             }
 145:main.c        ****             n=n+1;
 433              		.loc 1 145 0
 434 005e 254A     		ldr	r2, .L35
 435 0060 1389     		ldrh	r3, [r2, #8]
 436 0062 9BB2     		uxth	r3, r3
 437 0064 0133     		adds	r3, r3, #1
 438 0066 9BB2     		uxth	r3, r3
 439 0068 1381     		strh	r3, [r2, #8]	@ movhi
 146:main.c        ****             if(n==1000){
 440              		.loc 1 146 0
 441 006a 1389     		ldrh	r3, [r2, #8]
 442 006c 9BB2     		uxth	r3, r3
 443 006e B3F57A7F 		cmp	r3, #1000
 444 0072 02D1     		bne	.L31
 147:main.c        ****                   n=0;//n=dato actual de escritura de 0 a 1000     
 445              		.loc 1 147 0
 446 0074 0022     		movs	r2, #0
 447 0076 1F4B     		ldr	r3, .L35
 448 0078 1A81     		strh	r2, [r3, #8]	@ movhi
 449              	.L31:
 148:main.c        ****             }
 149:main.c        ****             E2PROM_16_W(n,0);
 450              		.loc 1 149 0
 451 007a 1E4C     		ldr	r4, .L35
 452 007c 2089     		ldrh	r0, [r4, #8]
 453 007e 0021     		movs	r1, #0
 454 0080 80B2     		uxth	r0, r0
 455 0082 FFF7FEFF 		bl	E2PROM_16_W
 456              	.LVL51:
 150:main.c        ****             //Guardar voltaje
 151:main.c        ****             E2PROM_16_W(aux[1],9*n+2);
 457              		.loc 1 151 0
 458 0086 2189     		ldrh	r1, [r4, #8]
 459 0088 89B2     		uxth	r1, r1
 460 008a 01EBC101 		add	r1, r1, r1, lsl #3
 461 008e 0231     		adds	r1, r1, #2
 462 0090 89B2     		uxth	r1, r1
 463 0092 6088     		ldrh	r0, [r4, #2]
 464 0094 FFF7FEFF 		bl	E2PROM_16_W
 465              	.LVL52:
 152:main.c        ****             DS_get_data();
 466              		.loc 1 152 0
 467 0098 FFF7FEFF 		bl	DS_get_data
 468              	.LVL53:
 469              	.LBB3:
ARM GAS  C:\Users\nikod\AppData\Local\Temp\cc3lIa3a.s 			page 12


 153:main.c        ****             for(int j=0;j<7;j++){
 470              		.loc 1 153 0
 471 009c 0024     		movs	r4, #0
 472 009e 0CE0     		b	.L32
 473              	.LVL54:
 474              	.L33:
 154:main.c        ****                 EEPROM_WriteByte(ds.datos[j],(uint16)(9*n+4+j));// Escribe los demas datos
 475              		.loc 1 154 0 discriminator 3
 476 00a0 144B     		ldr	r3, .L35
 477 00a2 1989     		ldrh	r1, [r3, #8]
 478 00a4 89B2     		uxth	r1, r1
 479 00a6 01EBC101 		add	r1, r1, r1, lsl #3
 480 00aa 2144     		add	r1, r1, r4
 481 00ac 0431     		adds	r1, r1, #4
 482 00ae 89B2     		uxth	r1, r1
 483 00b0 114B     		ldr	r3, .L35+4
 484 00b2 185D     		ldrb	r0, [r3, r4]	@ zero_extendqisi2
 485 00b4 FFF7FEFF 		bl	EEPROM_WriteByte
 486              	.LVL55:
 153:main.c        ****             for(int j=0;j<7;j++){
 487              		.loc 1 153 0 discriminator 3
 488 00b8 0134     		adds	r4, r4, #1
 489              	.LVL56:
 490              	.L32:
 153:main.c        ****             for(int j=0;j<7;j++){
 491              		.loc 1 153 0 is_stmt 0 discriminator 1
 492 00ba 062C     		cmp	r4, #6
 493 00bc F0DD     		ble	.L33
 494              	.LBE3:
 155:main.c        ****             }
 156:main.c        ****             if(de==0){//Muestra solo si esta en modo reloj
 495              		.loc 1 156 0 is_stmt 1
 496 00be 0D4B     		ldr	r3, .L35
 497 00c0 9B7A     		ldrb	r3, [r3, #10]	@ zero_extendqisi2
 498 00c2 13F0FF0F 		tst	r3, #255
 499 00c6 13D1     		bne	.L28
 157:main.c        ****                 LCD_Position(0,0);
 500              		.loc 1 157 0
 501 00c8 0021     		movs	r1, #0
 502 00ca 0846     		mov	r0, r1
 503 00cc FFF7FEFF 		bl	LCD_Position
 504              	.LVL57:
 158:main.c        ****                 LCD_PrintString("               ");
 505              		.loc 1 158 0
 506 00d0 0A48     		ldr	r0, .L35+8
 507 00d2 FFF7FEFF 		bl	LCD_PrintString
 508              	.LVL58:
 159:main.c        ****                 LCD_Position(0,0);
 509              		.loc 1 159 0
 510 00d6 0021     		movs	r1, #0
 511 00d8 0846     		mov	r0, r1
 512 00da FFF7FEFF 		bl	LCD_Position
 513              	.LVL59:
 160:main.c        ****                 LCD_PrintNumber(aux[1]);
 514              		.loc 1 160 0
 515 00de 054B     		ldr	r3, .L35
 516 00e0 5888     		ldrh	r0, [r3, #2]
ARM GAS  C:\Users\nikod\AppData\Local\Temp\cc3lIa3a.s 			page 13


 517 00e2 FFF7FEFF 		bl	LCD_PrintU32Number
 518              	.LVL60:
 161:main.c        ****                 LCD_PrintString("mV ");    
 519              		.loc 1 161 0
 520 00e6 0648     		ldr	r0, .L35+12
 521 00e8 FFF7FEFF 		bl	LCD_PrintString
 522              	.LVL61:
 162:main.c        ****                 visual();
 523              		.loc 1 162 0
 524 00ec FFF7FEFF 		bl	visual
 525              	.LVL62:
 526              	.L28:
 527 00f0 10BD     		pop	{r4, pc}
 528              	.L36:
 529 00f2 00BF     		.align	2
 530              	.L35:
 531 00f4 00000000 		.word	.LANCHOR0
 532 00f8 00000000 		.word	ds
 533 00fc 00000000 		.word	.LC0
 534 0100 10000000 		.word	.LC1
 535              		.cfi_endproc
 536              	.LFE72:
 537              		.size	Inte, .-Inte
 538              		.section	.text.visual2,"ax",%progbits
 539              		.align	2
 540              		.global	visual2
 541              		.thumb
 542              		.thumb_func
 543              		.type	visual2, %function
 544              	visual2:
 545              	.LFB70:
 104:main.c        ****         LCD_PrintNumber(0x01&(ds.date>>4));
 546              		.loc 1 104 0
 547              		.cfi_startproc
 548              		@ args = 0, pretend = 0, frame = 0
 549              		@ frame_needed = 0, uses_anonymous_args = 0
 550 0000 10B5     		push	{r4, lr}
 551              		.cfi_def_cfa_offset 8
 552              		.cfi_offset 4, -8
 553              		.cfi_offset 14, -4
 105:main.c        ****         LCD_PrintNumber((0b00001111)&ds.date);
 554              		.loc 1 105 0
 555 0002 124C     		ldr	r4, .L39
 556 0004 2079     		ldrb	r0, [r4, #4]	@ zero_extendqisi2
 557 0006 C0F30010 		ubfx	r0, r0, #4, #1
 558 000a FFF7FEFF 		bl	LCD_PrintU32Number
 559              	.LVL63:
 106:main.c        ****         LCD_PutChar('/');
 560              		.loc 1 106 0
 561 000e 2079     		ldrb	r0, [r4, #4]	@ zero_extendqisi2
 562 0010 00F00F00 		and	r0, r0, #15
 563 0014 FFF7FEFF 		bl	LCD_PrintU32Number
 564              	.LVL64:
 107:main.c        ****         LCD_PrintNumber(ds.month>>4);
 565              		.loc 1 107 0
 566 0018 2F20     		movs	r0, #47
 567 001a FFF7FEFF 		bl	LCD_PutChar
ARM GAS  C:\Users\nikod\AppData\Local\Temp\cc3lIa3a.s 			page 14


 568              	.LVL65:
 108:main.c        ****         LCD_PrintNumber((0b00001111)&ds.month);
 569              		.loc 1 108 0
 570 001e 6079     		ldrb	r0, [r4, #5]	@ zero_extendqisi2
 571 0020 0009     		lsrs	r0, r0, #4
 572 0022 FFF7FEFF 		bl	LCD_PrintU32Number
 573              	.LVL66:
 109:main.c        ****         LCD_PutChar('/');       
 574              		.loc 1 109 0
 575 0026 6079     		ldrb	r0, [r4, #5]	@ zero_extendqisi2
 576 0028 00F00F00 		and	r0, r0, #15
 577 002c FFF7FEFF 		bl	LCD_PrintU32Number
 578              	.LVL67:
 110:main.c        ****         LCD_PrintNumber(ds.year>>4);
 579              		.loc 1 110 0
 580 0030 2F20     		movs	r0, #47
 581 0032 FFF7FEFF 		bl	LCD_PutChar
 582              	.LVL68:
 111:main.c        ****         LCD_PrintNumber((0b00001111)&ds.year);
 583              		.loc 1 111 0
 584 0036 A079     		ldrb	r0, [r4, #6]	@ zero_extendqisi2
 585 0038 0009     		lsrs	r0, r0, #4
 586 003a FFF7FEFF 		bl	LCD_PrintU32Number
 587              	.LVL69:
 112:main.c        **** }
 588              		.loc 1 112 0
 589 003e A079     		ldrb	r0, [r4, #6]	@ zero_extendqisi2
 590 0040 00F00F00 		and	r0, r0, #15
 591 0044 FFF7FEFF 		bl	LCD_PrintU32Number
 592              	.LVL70:
 593 0048 10BD     		pop	{r4, pc}
 594              	.L40:
 595 004a 00BF     		.align	2
 596              	.L39:
 597 004c 00000000 		.word	ds
 598              		.cfi_endproc
 599              	.LFE70:
 600              		.size	visual2, .-visual2
 601              		.section	.text.EE_get_data,"ax",%progbits
 602              		.align	2
 603              		.global	EE_get_data
 604              		.thumb
 605              		.thumb_func
 606              		.type	EE_get_data, %function
 607              	EE_get_data:
 608              	.LFB71:
 115:main.c        ****                 
 609              		.loc 1 115 0
 610              		.cfi_startproc
 611              		@ args = 0, pretend = 0, frame = 0
 612              		@ frame_needed = 0, uses_anonymous_args = 0
 613 0000 10B5     		push	{r4, lr}
 614              		.cfi_def_cfa_offset 8
 615              		.cfi_offset 4, -8
 616              		.cfi_offset 14, -4
 117:main.c        ****                 LCD_Position(0,0);
 617              		.loc 1 117 0
ARM GAS  C:\Users\nikod\AppData\Local\Temp\cc3lIa3a.s 			page 15


 618 0002 0120     		movs	r0, #1
 619 0004 FFF7FEFF 		bl	LCD_WriteControl
 620              	.LVL71:
 118:main.c        ****                 LCD_PrintNumber(E2PROM_16_R(9*k+2));
 621              		.loc 1 118 0
 622 0008 0021     		movs	r1, #0
 623 000a 0846     		mov	r0, r1
 624 000c FFF7FEFF 		bl	LCD_Position
 625              	.LVL72:
 119:main.c        ****                 LCD_PrintString(" mV");
 626              		.loc 1 119 0
 627 0010 144B     		ldr	r3, .L45
 628 0012 D868     		ldr	r0, [r3, #12]
 629 0014 00EBC000 		add	r0, r0, r0, lsl #3
 630 0018 0230     		adds	r0, r0, #2
 631 001a 80B2     		uxth	r0, r0
 632 001c FFF7FEFF 		bl	E2PROM_16_R
 633              	.LVL73:
 634 0020 FFF7FEFF 		bl	LCD_PrintU32Number
 635              	.LVL74:
 120:main.c        ****                 for(int j=0;j<7;j++){
 636              		.loc 1 120 0
 637 0024 1048     		ldr	r0, .L45+4
 638 0026 FFF7FEFF 		bl	LCD_PrintString
 639              	.LVL75:
 640              	.LBB4:
 121:main.c        ****                     ds.datos[j]=EEPROM_ReadByte((uint16)(9*k+4+j));
 641              		.loc 1 121 0
 642 002a 0024     		movs	r4, #0
 643 002c 0BE0     		b	.L42
 644              	.LVL76:
 645              	.L43:
 122:main.c        ****                 }    
 646              		.loc 1 122 0 discriminator 3
 647 002e 0D4B     		ldr	r3, .L45
 648 0030 D868     		ldr	r0, [r3, #12]
 649 0032 00EBC000 		add	r0, r0, r0, lsl #3
 650 0036 2044     		add	r0, r0, r4
 651 0038 0430     		adds	r0, r0, #4
 652 003a 80B2     		uxth	r0, r0
 653 003c FFF7FEFF 		bl	EEPROM_ReadByte
 654              	.LVL77:
 655 0040 0A4B     		ldr	r3, .L45+8
 656 0042 1855     		strb	r0, [r3, r4]
 121:main.c        ****                     ds.datos[j]=EEPROM_ReadByte((uint16)(9*k+4+j));
 657              		.loc 1 121 0 discriminator 3
 658 0044 0134     		adds	r4, r4, #1
 659              	.LVL78:
 660              	.L42:
 121:main.c        ****                     ds.datos[j]=EEPROM_ReadByte((uint16)(9*k+4+j));
 661              		.loc 1 121 0 is_stmt 0 discriminator 1
 662 0046 062C     		cmp	r4, #6
 663 0048 F1DD     		ble	.L43
 664              	.LBE4:
 124:main.c        ****                 visual2();
 665              		.loc 1 124 0 is_stmt 1
 666 004a 0821     		movs	r1, #8
ARM GAS  C:\Users\nikod\AppData\Local\Temp\cc3lIa3a.s 			page 16


 667 004c 0020     		movs	r0, #0
 668 004e FFF7FEFF 		bl	LCD_Position
 669              	.LVL79:
 125:main.c        ****                 LCD_Position(1,4);  
 670              		.loc 1 125 0
 671 0052 FFF7FEFF 		bl	visual2
 672              	.LVL80:
 126:main.c        ****                 visual();
 673              		.loc 1 126 0
 674 0056 0421     		movs	r1, #4
 675 0058 0120     		movs	r0, #1
 676 005a FFF7FEFF 		bl	LCD_Position
 677              	.LVL81:
 127:main.c        **** }
 678              		.loc 1 127 0
 679 005e FFF7FEFF 		bl	visual
 680              	.LVL82:
 681 0062 10BD     		pop	{r4, pc}
 682              	.LVL83:
 683              	.L46:
 684              		.align	2
 685              	.L45:
 686 0064 00000000 		.word	.LANCHOR0
 687 0068 14000000 		.word	.LC2
 688 006c 00000000 		.word	ds
 689              		.cfi_endproc
 690              	.LFE71:
 691              		.size	EE_get_data, .-EE_get_data
 692              		.section	.text.Intswr,"ax",%progbits
 693              		.align	2
 694              		.global	Intswr
 695              		.thumb
 696              		.thumb_func
 697              		.type	Intswr, %function
 698              	Intswr:
 699              	.LFB73:
 163:main.c        ****             }
 164:main.c        ****         }
 165:main.c        ****     }
 166:main.c        **** 
 167:main.c        **** CY_ISR(Intswr){
 700              		.loc 1 167 0
 701              		.cfi_startproc
 702              		@ args = 0, pretend = 0, frame = 0
 703              		@ frame_needed = 0, uses_anonymous_args = 0
 704 0000 10B5     		push	{r4, lr}
 705              		.cfi_def_cfa_offset 8
 706              		.cfi_offset 4, -8
 707              		.cfi_offset 14, -4
 168:main.c        ****     switch(SW_Read()){
 708              		.loc 1 168 0
 709 0002 FFF7FEFF 		bl	SW_Read
 710              	.LVL84:
 711 0006 0528     		cmp	r0, #5
 712 0008 24D0     		beq	.L49
 713 000a 0628     		cmp	r0, #6
 714 000c 02D0     		beq	.L50
ARM GAS  C:\Users\nikod\AppData\Local\Temp\cc3lIa3a.s 			page 17


 715 000e 0328     		cmp	r0, #3
 716 0010 46D1     		bne	.L48
 717 0012 32E0     		b	.L51
 718              	.L50:
 169:main.c        ****     case 0b00000110:
 170:main.c        ****         LCD_ClearDisplay();
 719              		.loc 1 170 0
 720 0014 0120     		movs	r0, #1
 721 0016 FFF7FEFF 		bl	LCD_WriteControl
 722              	.LVL85:
 171:main.c        ****         if(de==0){
 723              		.loc 1 171 0
 724 001a 234B     		ldr	r3, .L57
 725 001c 9B7A     		ldrb	r3, [r3, #10]	@ zero_extendqisi2
 726 001e 13F0FF0F 		tst	r3, #255
 727 0022 13D1     		bne	.L52
 172:main.c        ****             de=1;//Actualiza Conversion
 728              		.loc 1 172 0
 729 0024 204C     		ldr	r4, .L57
 730 0026 0123     		movs	r3, #1
 731 0028 A372     		strb	r3, [r4, #10]
 173:main.c        ****             k=(E2PROM_16_R(0));
 732              		.loc 1 173 0
 733 002a 0020     		movs	r0, #0
 734 002c FFF7FEFF 		bl	E2PROM_16_R
 735              	.LVL86:
 736 0030 E060     		str	r0, [r4, #12]
 174:main.c        ****             if(k==0){
 737              		.loc 1 174 0
 738 0032 E368     		ldr	r3, [r4, #12]
 739 0034 3BB9     		cbnz	r3, .L53
 175:main.c        ****                 LCD_Position(0,0);
 740              		.loc 1 175 0
 741 0036 0021     		movs	r1, #0
 742 0038 0846     		mov	r0, r1
 743 003a FFF7FEFF 		bl	LCD_Position
 744              	.LVL87:
 176:main.c        ****                 LCD_PrintString("No hay datos");
 745              		.loc 1 176 0
 746 003e 1B48     		ldr	r0, .L57+4
 747 0040 FFF7FEFF 		bl	LCD_PrintString
 748              	.LVL88:
 749 0044 2CE0     		b	.L48
 750              	.L53:
 177:main.c        ****             }else{
 178:main.c        ****                 EE_get_data();
 751              		.loc 1 178 0
 752 0046 FFF7FEFF 		bl	EE_get_data
 753              	.LVL89:
 754 004a 29E0     		b	.L48
 755              	.L52:
 179:main.c        ****             }
 180:main.c        ****         }else{
 181:main.c        ****             de=0;
 756              		.loc 1 181 0
 757 004c 0022     		movs	r2, #0
 758 004e 164B     		ldr	r3, .L57
ARM GAS  C:\Users\nikod\AppData\Local\Temp\cc3lIa3a.s 			page 18


 759 0050 9A72     		strb	r2, [r3, #10]
 760 0052 25E0     		b	.L48
 761              	.L49:
 182:main.c        ****         }
 183:main.c        ****         break;
 184:main.c        ****     case 0b00000101:
 185:main.c        ****         if(de==1){//Boton desendente
 762              		.loc 1 185 0
 763 0054 144B     		ldr	r3, .L57
 764 0056 9B7A     		ldrb	r3, [r3, #10]	@ zero_extendqisi2
 765 0058 DBB2     		uxtb	r3, r3
 766 005a 012B     		cmp	r3, #1
 767 005c 20D1     		bne	.L48
 186:main.c        ****             k=k-1;
 768              		.loc 1 186 0
 769 005e 124B     		ldr	r3, .L57
 770 0060 DA68     		ldr	r2, [r3, #12]
 771 0062 013A     		subs	r2, r2, #1
 772 0064 DA60     		str	r2, [r3, #12]
 187:main.c        ****             if(k<=0){
 773              		.loc 1 187 0
 774 0066 DB68     		ldr	r3, [r3, #12]
 775 0068 002B     		cmp	r3, #0
 776 006a 03DC     		bgt	.L54
 188:main.c        ****                 k=n;
 777              		.loc 1 188 0
 778 006c 0E4A     		ldr	r2, .L57
 779 006e 1389     		ldrh	r3, [r2, #8]
 780 0070 9BB2     		uxth	r3, r3
 781 0072 D360     		str	r3, [r2, #12]
 782              	.L54:
 189:main.c        ****             }
 190:main.c        ****             EE_get_data();
 783              		.loc 1 190 0
 784 0074 FFF7FEFF 		bl	EE_get_data
 785              	.LVL90:
 786 0078 12E0     		b	.L48
 787              	.L51:
 191:main.c        ****                 
 192:main.c        ****         }
 193:main.c        ****         break;
 194:main.c        ****     case 0b00000011:
 195:main.c        ****         if(de==1){//Boton acendente
 788              		.loc 1 195 0
 789 007a 0B4B     		ldr	r3, .L57
 790 007c 9B7A     		ldrb	r3, [r3, #10]	@ zero_extendqisi2
 791 007e DBB2     		uxtb	r3, r3
 792 0080 012B     		cmp	r3, #1
 793 0082 0DD1     		bne	.L48
 196:main.c        ****             k=k+1;
 794              		.loc 1 196 0
 795 0084 084B     		ldr	r3, .L57
 796 0086 DA68     		ldr	r2, [r3, #12]
 797 0088 0132     		adds	r2, r2, #1
 798 008a DA60     		str	r2, [r3, #12]
 197:main.c        ****             if(k>n){
 799              		.loc 1 197 0
ARM GAS  C:\Users\nikod\AppData\Local\Temp\cc3lIa3a.s 			page 19


 800 008c 1A89     		ldrh	r2, [r3, #8]
 801 008e 92B2     		uxth	r2, r2
 802 0090 DB68     		ldr	r3, [r3, #12]
 803 0092 9A42     		cmp	r2, r3
 804 0094 02DA     		bge	.L55
 198:main.c        ****                 k=1;
 805              		.loc 1 198 0
 806 0096 0122     		movs	r2, #1
 807 0098 034B     		ldr	r3, .L57
 808 009a DA60     		str	r2, [r3, #12]
 809              	.L55:
 199:main.c        ****             }
 200:main.c        ****             EE_get_data();                
 810              		.loc 1 200 0
 811 009c FFF7FEFF 		bl	EE_get_data
 812              	.LVL91:
 813              	.L48:
 201:main.c        ****         }
 202:main.c        ****         break;
 203:main.c        ****      default:
 204:main.c        ****         break;
 205:main.c        ****     }
 206:main.c        ****     SW_ClearInterrupt();
 814              		.loc 1 206 0
 815 00a0 FFF7FEFF 		bl	SW_ClearInterrupt
 816              	.LVL92:
 817 00a4 10BD     		pop	{r4, pc}
 818              	.L58:
 819 00a6 00BF     		.align	2
 820              	.L57:
 821 00a8 00000000 		.word	.LANCHOR0
 822 00ac 18000000 		.word	.LC3
 823              		.cfi_endproc
 824              	.LFE73:
 825              		.size	Intswr, .-Intswr
 826              		.section	.text.main,"ax",%progbits
 827              		.align	2
 828              		.global	main
 829              		.thumb
 830              		.thumb_func
 831              		.type	main, %function
 832              	main:
 833              	.LFB74:
 207:main.c        **** }
 208:main.c        **** 
 209:main.c        **** int main(void)
 210:main.c        **** {
 834              		.loc 1 210 0
 835              		.cfi_startproc
 836              		@ Volatile: function does not return.
 837              		@ args = 0, pretend = 0, frame = 0
 838              		@ frame_needed = 0, uses_anonymous_args = 0
 839 0000 08B5     		push	{r3, lr}
 840              		.cfi_def_cfa_offset 8
 841              		.cfi_offset 3, -8
 842              		.cfi_offset 14, -4
 211:main.c        ****     CyGlobalIntEnable; /* Enable global interrupts. */
ARM GAS  C:\Users\nikod\AppData\Local\Temp\cc3lIa3a.s 			page 20


 843              		.loc 1 211 0
 844              		.syntax unified
 845              	@ 211 "main.c" 1
 846 0002 62B6     		CPSIE   i
 847              	@ 0 "" 2
 212:main.c        ****     LCD_Start();
 848              		.loc 1 212 0
 849              		.thumb
 850              		.syntax unified
 851 0004 FFF7FEFF 		bl	LCD_Start
 852              	.LVL93:
 213:main.c        ****     I2C_Start();
 853              		.loc 1 213 0
 854 0008 FFF7FEFF 		bl	I2C_Start
 855              	.LVL94:
 214:main.c        ****     Timer_Start();
 856              		.loc 1 214 0
 857 000c FFF7FEFF 		bl	Timer_Start
 858              	.LVL95:
 215:main.c        ****     IRS_StartEx(Inte);
 859              		.loc 1 215 0
 860 0010 1848     		ldr	r0, .L63
 861 0012 FFF7FEFF 		bl	IRS_StartEx
 862              	.LVL96:
 216:main.c        ****     ISR_SW_StartEx(Intswr);
 863              		.loc 1 216 0
 864 0016 1848     		ldr	r0, .L63+4
 865 0018 FFF7FEFF 		bl	ISR_SW_StartEx
 866              	.LVL97:
 217:main.c        ****     ADC_Start();
 867              		.loc 1 217 0
 868 001c FFF7FEFF 		bl	ADC_Start
 869              	.LVL98:
 218:main.c        ****     ds.hour = 0b00010001;
 870              		.loc 1 218 0
 871 0020 164B     		ldr	r3, .L63+8
 872 0022 1122     		movs	r2, #17
 873 0024 9A70     		strb	r2, [r3, #2]
 219:main.c        ****     ds.min =  0x51;
 874              		.loc 1 219 0
 875 0026 5122     		movs	r2, #81
 876 0028 5A70     		strb	r2, [r3, #1]
 220:main.c        ****     ds.sec =  0x00; //  11:05:30 am
 877              		.loc 1 220 0
 878 002a 0024     		movs	r4, #0
 879 002c 1C70     		strb	r4, [r3]
 221:main.c        ****     ds.date = 0x12; 
 880              		.loc 1 221 0
 881 002e 1222     		movs	r2, #18
 882 0030 1A71     		strb	r2, [r3, #4]
 222:main.c        ****     ds.month = 0x10;
 883              		.loc 1 222 0
 884 0032 1022     		movs	r2, #16
 885 0034 5A71     		strb	r2, [r3, #5]
 223:main.c        ****     ds.year = 0x18; //12 octubre 2018
 886              		.loc 1 223 0
 887 0036 1822     		movs	r2, #24
ARM GAS  C:\Users\nikod\AppData\Local\Temp\cc3lIa3a.s 			page 21


 888 0038 9A71     		strb	r2, [r3, #6]
 224:main.c        ****     ds.weekDay = 5; // Friday: 5th day of week considering monday as first day.
 889              		.loc 1 224 0
 890 003a 0522     		movs	r2, #5
 891 003c DA70     		strb	r2, [r3, #3]
 225:main.c        ****     EEPROM_Start();
 892              		.loc 1 225 0
 893 003e FFF7FEFF 		bl	EEPROM_Start
 894              	.LVL99:
 226:main.c        ****     DS_init();//Configura 
 895              		.loc 1 226 0
 896 0042 FFF7FEFF 		bl	DS_init
 897              	.LVL100:
 227:main.c        ****     n=(E2PROM_16_R(0));
 898              		.loc 1 227 0
 899 0046 2046     		mov	r0, r4
 900 0048 FFF7FEFF 		bl	E2PROM_16_R
 901              	.LVL101:
 902 004c 0C4B     		ldr	r3, .L63+12
 903 004e 1881     		strh	r0, [r3, #8]	@ movhi
 904              	.L60:
 228:main.c        ****     //DS_set_data();    
 229:main.c        ****     for(;;)
 230:main.c        ****     {   if(de==0){
 905              		.loc 1 230 0
 906 0050 0B4B     		ldr	r3, .L63+12
 907 0052 9B7A     		ldrb	r3, [r3, #10]	@ zero_extendqisi2
 908 0054 13F0FF0F 		tst	r3, #255
 909 0058 FAD1     		bne	.L60
 231:main.c        ****             DS_get_data();     
 910              		.loc 1 231 0
 911 005a FFF7FEFF 		bl	DS_get_data
 912              	.LVL102:
 232:main.c        ****             LCD_Position(1,4);
 913              		.loc 1 232 0
 914 005e 0421     		movs	r1, #4
 915 0060 0120     		movs	r0, #1
 916 0062 FFF7FEFF 		bl	LCD_Position
 917              	.LVL103:
 233:main.c        ****             visual();
 918              		.loc 1 233 0
 919 0066 FFF7FEFF 		bl	visual
 920              	.LVL104:
 234:main.c        ****             CyDelay(500);
 921              		.loc 1 234 0
 922 006a 4FF4FA70 		mov	r0, #500
 923 006e FFF7FEFF 		bl	CyDelay
 924              	.LVL105:
 925 0072 EDE7     		b	.L60
 926              	.L64:
 927              		.align	2
 928              	.L63:
 929 0074 00000000 		.word	Inte
 930 0078 00000000 		.word	Intswr
 931 007c 00000000 		.word	ds
 932 0080 00000000 		.word	.LANCHOR0
 933              		.cfi_endproc
ARM GAS  C:\Users\nikod\AppData\Local\Temp\cc3lIa3a.s 			page 22


 934              	.LFE74:
 935              		.size	main, .-main
 936              		.global	k
 937              		.global	n
 938              		.global	m
 939              		.global	de
 940              		.global	aux
 941              		.comm	ds,8,4
 942              		.section	.rodata.str1.4,"aMS",%progbits,1
 943              		.align	2
 944              	.LC0:
 945 0000 20202020 		.ascii	"               \000"
 945      20202020 
 945      20202020 
 945      20202000 
 946              	.LC1:
 947 0010 6D562000 		.ascii	"mV \000"
 948              	.LC2:
 949 0014 206D5600 		.ascii	" mV\000"
 950              	.LC3:
 951 0018 4E6F2068 		.ascii	"No hay datos\000"
 951      61792064 
 951      61746F73 
 951      00
 952              		.bss
 953              		.align	2
 954              		.set	.LANCHOR0,. + 0
 955              		.type	aux, %object
 956              		.size	aux, 6
 957              	aux:
 958 0000 00000000 		.space	6
 958      0000
 959              		.type	m, %object
 960              		.size	m, 2
 961              	m:
 962 0006 0000     		.space	2
 963              		.type	n, %object
 964              		.size	n, 2
 965              	n:
 966 0008 0000     		.space	2
 967              		.type	de, %object
 968              		.size	de, 1
 969              	de:
 970 000a 00       		.space	1
 971 000b 00       		.space	1
 972              		.type	k, %object
 973              		.size	k, 4
 974              	k:
 975 000c 00000000 		.space	4
 976              		.text
 977              	.Letext0:
 978              		.file 2 "c:\\program files (x86)\\cypress\\psoc creator\\4.2\\psoc creator\\import\\gnu\\arm\\5.4.
 979              		.file 3 "c:\\program files (x86)\\cypress\\psoc creator\\4.2\\psoc creator\\import\\gnu\\arm\\5.4.
 980              		.file 4 "Generated_Source\\PSoC5/cytypes.h"
 981              		.file 5 "Generated_Source\\PSoC5/I2C.h"
 982              		.file 6 "Generated_Source\\PSoC5/EEPROM.h"
 983              		.file 7 "Generated_Source\\PSoC5/LCD.h"
ARM GAS  C:\Users\nikod\AppData\Local\Temp\cc3lIa3a.s 			page 23


 984              		.file 8 "Generated_Source\\PSoC5/ADC.h"
 985              		.file 9 "Generated_Source\\PSoC5/SW.h"
 986              		.file 10 "Generated_Source\\PSoC5/Timer.h"
 987              		.file 11 "Generated_Source\\PSoC5/IRS.h"
 988              		.file 12 "Generated_Source\\PSoC5/ISR_SW.h"
 989              		.file 13 "Generated_Source\\PSoC5/CyLib.h"
 990              		.file 14 "Generated_Source\\PSoC5/core_cm3.h"